
;CodeVisionAVR C Compiler V3.12 Advanced
;(C) Copyright 1998-2014 Pavel Haiduc, HP InfoTech s.r.l.
;http://www.hpinfotech.com

;Build configuration    : Debug
;Chip type              : ATmega32
;Program type           : Application
;Clock frequency        : 8.000000 MHz
;Memory model           : Small
;Optimize for           : Size
;(s)printf features     : int, width
;(s)scanf features      : int, width
;External RAM size      : 0
;Data Stack size        : 512 byte(s)
;Heap size              : 0 byte(s)
;Promote 'char' to 'int': Yes
;'char' is unsigned     : Yes
;8 bit enums            : Yes
;Global 'const' stored in FLASH: Yes
;Enhanced function parameter passing: Yes
;Enhanced core instructions: On
;Automatic register allocation for global variables: On
;Smart register allocation: On

	#define _MODEL_SMALL_

	#pragma AVRPART ADMIN PART_NAME ATmega32
	#pragma AVRPART MEMORY PROG_FLASH 32768
	#pragma AVRPART MEMORY EEPROM 1024
	#pragma AVRPART MEMORY INT_SRAM SIZE 2048
	#pragma AVRPART MEMORY INT_SRAM START_ADDR 0x60

	#define CALL_SUPPORTED 1

	.LISTMAC
	.EQU UDRE=0x5
	.EQU RXC=0x7
	.EQU USR=0xB
	.EQU UDR=0xC
	.EQU SPSR=0xE
	.EQU SPDR=0xF
	.EQU EERE=0x0
	.EQU EEWE=0x1
	.EQU EEMWE=0x2
	.EQU EECR=0x1C
	.EQU EEDR=0x1D
	.EQU EEARL=0x1E
	.EQU EEARH=0x1F
	.EQU WDTCR=0x21
	.EQU MCUCR=0x35
	.EQU GICR=0x3B
	.EQU SPL=0x3D
	.EQU SPH=0x3E
	.EQU SREG=0x3F

	.DEF R0X0=R0
	.DEF R0X1=R1
	.DEF R0X2=R2
	.DEF R0X3=R3
	.DEF R0X4=R4
	.DEF R0X5=R5
	.DEF R0X6=R6
	.DEF R0X7=R7
	.DEF R0X8=R8
	.DEF R0X9=R9
	.DEF R0XA=R10
	.DEF R0XB=R11
	.DEF R0XC=R12
	.DEF R0XD=R13
	.DEF R0XE=R14
	.DEF R0XF=R15
	.DEF R0X10=R16
	.DEF R0X11=R17
	.DEF R0X12=R18
	.DEF R0X13=R19
	.DEF R0X14=R20
	.DEF R0X15=R21
	.DEF R0X16=R22
	.DEF R0X17=R23
	.DEF R0X18=R24
	.DEF R0X19=R25
	.DEF R0X1A=R26
	.DEF R0X1B=R27
	.DEF R0X1C=R28
	.DEF R0X1D=R29
	.DEF R0X1E=R30
	.DEF R0X1F=R31

	.EQU __SRAM_START=0x0060
	.EQU __SRAM_END=0x085F
	.EQU __DSTACK_SIZE=0x0200
	.EQU __HEAP_SIZE=0x0000
	.EQU __CLEAR_SRAM_SIZE=__SRAM_END-__SRAM_START+1

	.MACRO __CPD1N
	CPI  R30,LOW(@0)
	LDI  R26,HIGH(@0)
	CPC  R31,R26
	LDI  R26,BYTE3(@0)
	CPC  R22,R26
	LDI  R26,BYTE4(@0)
	CPC  R23,R26
	.ENDM

	.MACRO __CPD2N
	CPI  R26,LOW(@0)
	LDI  R30,HIGH(@0)
	CPC  R27,R30
	LDI  R30,BYTE3(@0)
	CPC  R24,R30
	LDI  R30,BYTE4(@0)
	CPC  R25,R30
	.ENDM

	.MACRO __CPWRR
	CP   R@0,R@2
	CPC  R@1,R@3
	.ENDM

	.MACRO __CPWRN
	CPI  R@0,LOW(@2)
	LDI  R30,HIGH(@2)
	CPC  R@1,R30
	.ENDM

	.MACRO __ADDB1MN
	SUBI R30,LOW(-@0-(@1))
	.ENDM

	.MACRO __ADDB2MN
	SUBI R26,LOW(-@0-(@1))
	.ENDM

	.MACRO __ADDW1MN
	SUBI R30,LOW(-@0-(@1))
	SBCI R31,HIGH(-@0-(@1))
	.ENDM

	.MACRO __ADDW2MN
	SUBI R26,LOW(-@0-(@1))
	SBCI R27,HIGH(-@0-(@1))
	.ENDM

	.MACRO __ADDW1FN
	SUBI R30,LOW(-2*@0-(@1))
	SBCI R31,HIGH(-2*@0-(@1))
	.ENDM

	.MACRO __ADDD1FN
	SUBI R30,LOW(-2*@0-(@1))
	SBCI R31,HIGH(-2*@0-(@1))
	SBCI R22,BYTE3(-2*@0-(@1))
	.ENDM

	.MACRO __ADDD1N
	SUBI R30,LOW(-@0)
	SBCI R31,HIGH(-@0)
	SBCI R22,BYTE3(-@0)
	SBCI R23,BYTE4(-@0)
	.ENDM

	.MACRO __ADDD2N
	SUBI R26,LOW(-@0)
	SBCI R27,HIGH(-@0)
	SBCI R24,BYTE3(-@0)
	SBCI R25,BYTE4(-@0)
	.ENDM

	.MACRO __SUBD1N
	SUBI R30,LOW(@0)
	SBCI R31,HIGH(@0)
	SBCI R22,BYTE3(@0)
	SBCI R23,BYTE4(@0)
	.ENDM

	.MACRO __SUBD2N
	SUBI R26,LOW(@0)
	SBCI R27,HIGH(@0)
	SBCI R24,BYTE3(@0)
	SBCI R25,BYTE4(@0)
	.ENDM

	.MACRO __ANDBMNN
	LDS  R30,@0+(@1)
	ANDI R30,LOW(@2)
	STS  @0+(@1),R30
	.ENDM

	.MACRO __ANDWMNN
	LDS  R30,@0+(@1)
	ANDI R30,LOW(@2)
	STS  @0+(@1),R30
	LDS  R30,@0+(@1)+1
	ANDI R30,HIGH(@2)
	STS  @0+(@1)+1,R30
	.ENDM

	.MACRO __ANDD1N
	ANDI R30,LOW(@0)
	ANDI R31,HIGH(@0)
	ANDI R22,BYTE3(@0)
	ANDI R23,BYTE4(@0)
	.ENDM

	.MACRO __ANDD2N
	ANDI R26,LOW(@0)
	ANDI R27,HIGH(@0)
	ANDI R24,BYTE3(@0)
	ANDI R25,BYTE4(@0)
	.ENDM

	.MACRO __ORBMNN
	LDS  R30,@0+(@1)
	ORI  R30,LOW(@2)
	STS  @0+(@1),R30
	.ENDM

	.MACRO __ORWMNN
	LDS  R30,@0+(@1)
	ORI  R30,LOW(@2)
	STS  @0+(@1),R30
	LDS  R30,@0+(@1)+1
	ORI  R30,HIGH(@2)
	STS  @0+(@1)+1,R30
	.ENDM

	.MACRO __ORD1N
	ORI  R30,LOW(@0)
	ORI  R31,HIGH(@0)
	ORI  R22,BYTE3(@0)
	ORI  R23,BYTE4(@0)
	.ENDM

	.MACRO __ORD2N
	ORI  R26,LOW(@0)
	ORI  R27,HIGH(@0)
	ORI  R24,BYTE3(@0)
	ORI  R25,BYTE4(@0)
	.ENDM

	.MACRO __DELAY_USB
	LDI  R24,LOW(@0)
__DELAY_USB_LOOP:
	DEC  R24
	BRNE __DELAY_USB_LOOP
	.ENDM

	.MACRO __DELAY_USW
	LDI  R24,LOW(@0)
	LDI  R25,HIGH(@0)
__DELAY_USW_LOOP:
	SBIW R24,1
	BRNE __DELAY_USW_LOOP
	.ENDM

	.MACRO __GETD1S
	LDD  R30,Y+@0
	LDD  R31,Y+@0+1
	LDD  R22,Y+@0+2
	LDD  R23,Y+@0+3
	.ENDM

	.MACRO __GETD2S
	LDD  R26,Y+@0
	LDD  R27,Y+@0+1
	LDD  R24,Y+@0+2
	LDD  R25,Y+@0+3
	.ENDM

	.MACRO __PUTD1S
	STD  Y+@0,R30
	STD  Y+@0+1,R31
	STD  Y+@0+2,R22
	STD  Y+@0+3,R23
	.ENDM

	.MACRO __PUTD2S
	STD  Y+@0,R26
	STD  Y+@0+1,R27
	STD  Y+@0+2,R24
	STD  Y+@0+3,R25
	.ENDM

	.MACRO __PUTDZ2
	STD  Z+@0,R26
	STD  Z+@0+1,R27
	STD  Z+@0+2,R24
	STD  Z+@0+3,R25
	.ENDM

	.MACRO __CLRD1S
	STD  Y+@0,R30
	STD  Y+@0+1,R30
	STD  Y+@0+2,R30
	STD  Y+@0+3,R30
	.ENDM

	.MACRO __POINTB1MN
	LDI  R30,LOW(@0+(@1))
	.ENDM

	.MACRO __POINTW1MN
	LDI  R30,LOW(@0+(@1))
	LDI  R31,HIGH(@0+(@1))
	.ENDM

	.MACRO __POINTD1M
	LDI  R30,LOW(@0)
	LDI  R31,HIGH(@0)
	LDI  R22,BYTE3(@0)
	LDI  R23,BYTE4(@0)
	.ENDM

	.MACRO __POINTW1FN
	LDI  R30,LOW(2*@0+(@1))
	LDI  R31,HIGH(2*@0+(@1))
	.ENDM

	.MACRO __POINTD1FN
	LDI  R30,LOW(2*@0+(@1))
	LDI  R31,HIGH(2*@0+(@1))
	LDI  R22,BYTE3(2*@0+(@1))
	LDI  R23,BYTE4(2*@0+(@1))
	.ENDM

	.MACRO __POINTB2MN
	LDI  R26,LOW(@0+(@1))
	.ENDM

	.MACRO __POINTW2MN
	LDI  R26,LOW(@0+(@1))
	LDI  R27,HIGH(@0+(@1))
	.ENDM

	.MACRO __POINTW2FN
	LDI  R26,LOW(2*@0+(@1))
	LDI  R27,HIGH(2*@0+(@1))
	.ENDM

	.MACRO __POINTD2FN
	LDI  R26,LOW(2*@0+(@1))
	LDI  R27,HIGH(2*@0+(@1))
	LDI  R24,BYTE3(2*@0+(@1))
	LDI  R25,BYTE4(2*@0+(@1))
	.ENDM

	.MACRO __POINTBRM
	LDI  R@0,LOW(@1)
	.ENDM

	.MACRO __POINTWRM
	LDI  R@0,LOW(@2)
	LDI  R@1,HIGH(@2)
	.ENDM

	.MACRO __POINTBRMN
	LDI  R@0,LOW(@1+(@2))
	.ENDM

	.MACRO __POINTWRMN
	LDI  R@0,LOW(@2+(@3))
	LDI  R@1,HIGH(@2+(@3))
	.ENDM

	.MACRO __POINTWRFN
	LDI  R@0,LOW(@2*2+(@3))
	LDI  R@1,HIGH(@2*2+(@3))
	.ENDM

	.MACRO __GETD1N
	LDI  R30,LOW(@0)
	LDI  R31,HIGH(@0)
	LDI  R22,BYTE3(@0)
	LDI  R23,BYTE4(@0)
	.ENDM

	.MACRO __GETD2N
	LDI  R26,LOW(@0)
	LDI  R27,HIGH(@0)
	LDI  R24,BYTE3(@0)
	LDI  R25,BYTE4(@0)
	.ENDM

	.MACRO __GETB1MN
	LDS  R30,@0+(@1)
	.ENDM

	.MACRO __GETB1HMN
	LDS  R31,@0+(@1)
	.ENDM

	.MACRO __GETW1MN
	LDS  R30,@0+(@1)
	LDS  R31,@0+(@1)+1
	.ENDM

	.MACRO __GETD1MN
	LDS  R30,@0+(@1)
	LDS  R31,@0+(@1)+1
	LDS  R22,@0+(@1)+2
	LDS  R23,@0+(@1)+3
	.ENDM

	.MACRO __GETBRMN
	LDS  R@0,@1+(@2)
	.ENDM

	.MACRO __GETWRMN
	LDS  R@0,@2+(@3)
	LDS  R@1,@2+(@3)+1
	.ENDM

	.MACRO __GETWRZ
	LDD  R@0,Z+@2
	LDD  R@1,Z+@2+1
	.ENDM

	.MACRO __GETD2Z
	LDD  R26,Z+@0
	LDD  R27,Z+@0+1
	LDD  R24,Z+@0+2
	LDD  R25,Z+@0+3
	.ENDM

	.MACRO __GETB2MN
	LDS  R26,@0+(@1)
	.ENDM

	.MACRO __GETW2MN
	LDS  R26,@0+(@1)
	LDS  R27,@0+(@1)+1
	.ENDM

	.MACRO __GETD2MN
	LDS  R26,@0+(@1)
	LDS  R27,@0+(@1)+1
	LDS  R24,@0+(@1)+2
	LDS  R25,@0+(@1)+3
	.ENDM

	.MACRO __PUTB1MN
	STS  @0+(@1),R30
	.ENDM

	.MACRO __PUTW1MN
	STS  @0+(@1),R30
	STS  @0+(@1)+1,R31
	.ENDM

	.MACRO __PUTD1MN
	STS  @0+(@1),R30
	STS  @0+(@1)+1,R31
	STS  @0+(@1)+2,R22
	STS  @0+(@1)+3,R23
	.ENDM

	.MACRO __PUTB1EN
	LDI  R26,LOW(@0+(@1))
	LDI  R27,HIGH(@0+(@1))
	CALL __EEPROMWRB
	.ENDM

	.MACRO __PUTW1EN
	LDI  R26,LOW(@0+(@1))
	LDI  R27,HIGH(@0+(@1))
	CALL __EEPROMWRW
	.ENDM

	.MACRO __PUTD1EN
	LDI  R26,LOW(@0+(@1))
	LDI  R27,HIGH(@0+(@1))
	CALL __EEPROMWRD
	.ENDM

	.MACRO __PUTBR0MN
	STS  @0+(@1),R0
	.ENDM

	.MACRO __PUTBMRN
	STS  @0+(@1),R@2
	.ENDM

	.MACRO __PUTWMRN
	STS  @0+(@1),R@2
	STS  @0+(@1)+1,R@3
	.ENDM

	.MACRO __PUTBZR
	STD  Z+@1,R@0
	.ENDM

	.MACRO __PUTWZR
	STD  Z+@2,R@0
	STD  Z+@2+1,R@1
	.ENDM

	.MACRO __GETW1R
	MOV  R30,R@0
	MOV  R31,R@1
	.ENDM

	.MACRO __GETW2R
	MOV  R26,R@0
	MOV  R27,R@1
	.ENDM

	.MACRO __GETWRN
	LDI  R@0,LOW(@2)
	LDI  R@1,HIGH(@2)
	.ENDM

	.MACRO __PUTW1R
	MOV  R@0,R30
	MOV  R@1,R31
	.ENDM

	.MACRO __PUTW2R
	MOV  R@0,R26
	MOV  R@1,R27
	.ENDM

	.MACRO __ADDWRN
	SUBI R@0,LOW(-@2)
	SBCI R@1,HIGH(-@2)
	.ENDM

	.MACRO __ADDWRR
	ADD  R@0,R@2
	ADC  R@1,R@3
	.ENDM

	.MACRO __SUBWRN
	SUBI R@0,LOW(@2)
	SBCI R@1,HIGH(@2)
	.ENDM

	.MACRO __SUBWRR
	SUB  R@0,R@2
	SBC  R@1,R@3
	.ENDM

	.MACRO __ANDWRN
	ANDI R@0,LOW(@2)
	ANDI R@1,HIGH(@2)
	.ENDM

	.MACRO __ANDWRR
	AND  R@0,R@2
	AND  R@1,R@3
	.ENDM

	.MACRO __ORWRN
	ORI  R@0,LOW(@2)
	ORI  R@1,HIGH(@2)
	.ENDM

	.MACRO __ORWRR
	OR   R@0,R@2
	OR   R@1,R@3
	.ENDM

	.MACRO __EORWRR
	EOR  R@0,R@2
	EOR  R@1,R@3
	.ENDM

	.MACRO __GETWRS
	LDD  R@0,Y+@2
	LDD  R@1,Y+@2+1
	.ENDM

	.MACRO __PUTBSR
	STD  Y+@1,R@0
	.ENDM

	.MACRO __PUTWSR
	STD  Y+@2,R@0
	STD  Y+@2+1,R@1
	.ENDM

	.MACRO __MOVEWRR
	MOV  R@0,R@2
	MOV  R@1,R@3
	.ENDM

	.MACRO __INWR
	IN   R@0,@2
	IN   R@1,@2+1
	.ENDM

	.MACRO __OUTWR
	OUT  @2+1,R@1
	OUT  @2,R@0
	.ENDM

	.MACRO __CALL1MN
	LDS  R30,@0+(@1)
	LDS  R31,@0+(@1)+1
	ICALL
	.ENDM

	.MACRO __CALL1FN
	LDI  R30,LOW(2*@0+(@1))
	LDI  R31,HIGH(2*@0+(@1))
	CALL __GETW1PF
	ICALL
	.ENDM

	.MACRO __CALL2EN
	PUSH R26
	PUSH R27
	LDI  R26,LOW(@0+(@1))
	LDI  R27,HIGH(@0+(@1))
	CALL __EEPROMRDW
	POP  R27
	POP  R26
	ICALL
	.ENDM

	.MACRO __CALL2EX
	SUBI R26,LOW(-@0)
	SBCI R27,HIGH(-@0)
	CALL __EEPROMRDD
	ICALL
	.ENDM

	.MACRO __GETW1STACK
	IN   R30,SPL
	IN   R31,SPH
	ADIW R30,@0+1
	LD   R0,Z+
	LD   R31,Z
	MOV  R30,R0
	.ENDM

	.MACRO __GETD1STACK
	IN   R30,SPL
	IN   R31,SPH
	ADIW R30,@0+1
	LD   R0,Z+
	LD   R1,Z+
	LD   R22,Z
	MOVW R30,R0
	.ENDM

	.MACRO __NBST
	BST  R@0,@1
	IN   R30,SREG
	LDI  R31,0x40
	EOR  R30,R31
	OUT  SREG,R30
	.ENDM


	.MACRO __PUTB1SN
	LDD  R26,Y+@0
	LDD  R27,Y+@0+1
	SUBI R26,LOW(-@1)
	SBCI R27,HIGH(-@1)
	ST   X,R30
	.ENDM

	.MACRO __PUTW1SN
	LDD  R26,Y+@0
	LDD  R27,Y+@0+1
	SUBI R26,LOW(-@1)
	SBCI R27,HIGH(-@1)
	ST   X+,R30
	ST   X,R31
	.ENDM

	.MACRO __PUTD1SN
	LDD  R26,Y+@0
	LDD  R27,Y+@0+1
	SUBI R26,LOW(-@1)
	SBCI R27,HIGH(-@1)
	CALL __PUTDP1
	.ENDM

	.MACRO __PUTB1SNS
	LDD  R26,Y+@0
	LDD  R27,Y+@0+1
	ADIW R26,@1
	ST   X,R30
	.ENDM

	.MACRO __PUTW1SNS
	LDD  R26,Y+@0
	LDD  R27,Y+@0+1
	ADIW R26,@1
	ST   X+,R30
	ST   X,R31
	.ENDM

	.MACRO __PUTD1SNS
	LDD  R26,Y+@0
	LDD  R27,Y+@0+1
	ADIW R26,@1
	CALL __PUTDP1
	.ENDM

	.MACRO __PUTB1PMN
	LDS  R26,@0
	LDS  R27,@0+1
	SUBI R26,LOW(-@1)
	SBCI R27,HIGH(-@1)
	ST   X,R30
	.ENDM

	.MACRO __PUTW1PMN
	LDS  R26,@0
	LDS  R27,@0+1
	SUBI R26,LOW(-@1)
	SBCI R27,HIGH(-@1)
	ST   X+,R30
	ST   X,R31
	.ENDM

	.MACRO __PUTD1PMN
	LDS  R26,@0
	LDS  R27,@0+1
	SUBI R26,LOW(-@1)
	SBCI R27,HIGH(-@1)
	CALL __PUTDP1
	.ENDM

	.MACRO __PUTB1PMNS
	LDS  R26,@0
	LDS  R27,@0+1
	ADIW R26,@1
	ST   X,R30
	.ENDM

	.MACRO __PUTW1PMNS
	LDS  R26,@0
	LDS  R27,@0+1
	ADIW R26,@1
	ST   X+,R30
	ST   X,R31
	.ENDM

	.MACRO __PUTD1PMNS
	LDS  R26,@0
	LDS  R27,@0+1
	ADIW R26,@1
	CALL __PUTDP1
	.ENDM

	.MACRO __PUTB1RN
	MOVW R26,R@0
	SUBI R26,LOW(-@1)
	SBCI R27,HIGH(-@1)
	ST   X,R30
	.ENDM

	.MACRO __PUTW1RN
	MOVW R26,R@0
	SUBI R26,LOW(-@1)
	SBCI R27,HIGH(-@1)
	ST   X+,R30
	ST   X,R31
	.ENDM

	.MACRO __PUTD1RN
	MOVW R26,R@0
	SUBI R26,LOW(-@1)
	SBCI R27,HIGH(-@1)
	CALL __PUTDP1
	.ENDM

	.MACRO __PUTB1RNS
	MOVW R26,R@0
	ADIW R26,@1
	ST   X,R30
	.ENDM

	.MACRO __PUTW1RNS
	MOVW R26,R@0
	ADIW R26,@1
	ST   X+,R30
	ST   X,R31
	.ENDM

	.MACRO __PUTD1RNS
	MOVW R26,R@0
	ADIW R26,@1
	CALL __PUTDP1
	.ENDM

	.MACRO __PUTB1RON
	MOV  R26,R@0
	MOV  R27,R@1
	SUBI R26,LOW(-@2)
	SBCI R27,HIGH(-@2)
	ST   X,R30
	.ENDM

	.MACRO __PUTW1RON
	MOV  R26,R@0
	MOV  R27,R@1
	SUBI R26,LOW(-@2)
	SBCI R27,HIGH(-@2)
	ST   X+,R30
	ST   X,R31
	.ENDM

	.MACRO __PUTD1RON
	MOV  R26,R@0
	MOV  R27,R@1
	SUBI R26,LOW(-@2)
	SBCI R27,HIGH(-@2)
	CALL __PUTDP1
	.ENDM

	.MACRO __PUTB1RONS
	MOV  R26,R@0
	MOV  R27,R@1
	ADIW R26,@2
	ST   X,R30
	.ENDM

	.MACRO __PUTW1RONS
	MOV  R26,R@0
	MOV  R27,R@1
	ADIW R26,@2
	ST   X+,R30
	ST   X,R31
	.ENDM

	.MACRO __PUTD1RONS
	MOV  R26,R@0
	MOV  R27,R@1
	ADIW R26,@2
	CALL __PUTDP1
	.ENDM


	.MACRO __GETB1SX
	MOVW R30,R28
	SUBI R30,LOW(-@0)
	SBCI R31,HIGH(-@0)
	LD   R30,Z
	.ENDM

	.MACRO __GETB1HSX
	MOVW R30,R28
	SUBI R30,LOW(-@0)
	SBCI R31,HIGH(-@0)
	LD   R31,Z
	.ENDM

	.MACRO __GETW1SX
	MOVW R30,R28
	SUBI R30,LOW(-@0)
	SBCI R31,HIGH(-@0)
	LD   R0,Z+
	LD   R31,Z
	MOV  R30,R0
	.ENDM

	.MACRO __GETD1SX
	MOVW R30,R28
	SUBI R30,LOW(-@0)
	SBCI R31,HIGH(-@0)
	LD   R0,Z+
	LD   R1,Z+
	LD   R22,Z+
	LD   R23,Z
	MOVW R30,R0
	.ENDM

	.MACRO __GETB2SX
	MOVW R26,R28
	SUBI R26,LOW(-@0)
	SBCI R27,HIGH(-@0)
	LD   R26,X
	.ENDM

	.MACRO __GETW2SX
	MOVW R26,R28
	SUBI R26,LOW(-@0)
	SBCI R27,HIGH(-@0)
	LD   R0,X+
	LD   R27,X
	MOV  R26,R0
	.ENDM

	.MACRO __GETD2SX
	MOVW R26,R28
	SUBI R26,LOW(-@0)
	SBCI R27,HIGH(-@0)
	LD   R0,X+
	LD   R1,X+
	LD   R24,X+
	LD   R25,X
	MOVW R26,R0
	.ENDM

	.MACRO __GETBRSX
	MOVW R30,R28
	SUBI R30,LOW(-@1)
	SBCI R31,HIGH(-@1)
	LD   R@0,Z
	.ENDM

	.MACRO __GETWRSX
	MOVW R30,R28
	SUBI R30,LOW(-@2)
	SBCI R31,HIGH(-@2)
	LD   R@0,Z+
	LD   R@1,Z
	.ENDM

	.MACRO __GETBRSX2
	MOVW R26,R28
	SUBI R26,LOW(-@1)
	SBCI R27,HIGH(-@1)
	LD   R@0,X
	.ENDM

	.MACRO __GETWRSX2
	MOVW R26,R28
	SUBI R26,LOW(-@2)
	SBCI R27,HIGH(-@2)
	LD   R@0,X+
	LD   R@1,X
	.ENDM

	.MACRO __LSLW8SX
	MOVW R30,R28
	SUBI R30,LOW(-@0)
	SBCI R31,HIGH(-@0)
	LD   R31,Z
	CLR  R30
	.ENDM

	.MACRO __PUTB1SX
	MOVW R26,R28
	SUBI R26,LOW(-@0)
	SBCI R27,HIGH(-@0)
	ST   X,R30
	.ENDM

	.MACRO __PUTW1SX
	MOVW R26,R28
	SUBI R26,LOW(-@0)
	SBCI R27,HIGH(-@0)
	ST   X+,R30
	ST   X,R31
	.ENDM

	.MACRO __PUTD1SX
	MOVW R26,R28
	SUBI R26,LOW(-@0)
	SBCI R27,HIGH(-@0)
	ST   X+,R30
	ST   X+,R31
	ST   X+,R22
	ST   X,R23
	.ENDM

	.MACRO __CLRW1SX
	MOVW R26,R28
	SUBI R26,LOW(-@0)
	SBCI R27,HIGH(-@0)
	ST   X+,R30
	ST   X,R30
	.ENDM

	.MACRO __CLRD1SX
	MOVW R26,R28
	SUBI R26,LOW(-@0)
	SBCI R27,HIGH(-@0)
	ST   X+,R30
	ST   X+,R30
	ST   X+,R30
	ST   X,R30
	.ENDM

	.MACRO __PUTB2SX
	MOVW R30,R28
	SUBI R30,LOW(-@0)
	SBCI R31,HIGH(-@0)
	ST   Z,R26
	.ENDM

	.MACRO __PUTW2SX
	MOVW R30,R28
	SUBI R30,LOW(-@0)
	SBCI R31,HIGH(-@0)
	ST   Z+,R26
	ST   Z,R27
	.ENDM

	.MACRO __PUTD2SX
	MOVW R30,R28
	SUBI R30,LOW(-@0)
	SBCI R31,HIGH(-@0)
	ST   Z+,R26
	ST   Z+,R27
	ST   Z+,R24
	ST   Z,R25
	.ENDM

	.MACRO __PUTBSRX
	MOVW R30,R28
	SUBI R30,LOW(-@1)
	SBCI R31,HIGH(-@1)
	ST   Z,R@0
	.ENDM

	.MACRO __PUTWSRX
	MOVW R30,R28
	SUBI R30,LOW(-@2)
	SBCI R31,HIGH(-@2)
	ST   Z+,R@0
	ST   Z,R@1
	.ENDM

	.MACRO __PUTB1SNX
	MOVW R26,R28
	SUBI R26,LOW(-@0)
	SBCI R27,HIGH(-@0)
	LD   R0,X+
	LD   R27,X
	MOV  R26,R0
	SUBI R26,LOW(-@1)
	SBCI R27,HIGH(-@1)
	ST   X,R30
	.ENDM

	.MACRO __PUTW1SNX
	MOVW R26,R28
	SUBI R26,LOW(-@0)
	SBCI R27,HIGH(-@0)
	LD   R0,X+
	LD   R27,X
	MOV  R26,R0
	SUBI R26,LOW(-@1)
	SBCI R27,HIGH(-@1)
	ST   X+,R30
	ST   X,R31
	.ENDM

	.MACRO __PUTD1SNX
	MOVW R26,R28
	SUBI R26,LOW(-@0)
	SBCI R27,HIGH(-@0)
	LD   R0,X+
	LD   R27,X
	MOV  R26,R0
	SUBI R26,LOW(-@1)
	SBCI R27,HIGH(-@1)
	ST   X+,R30
	ST   X+,R31
	ST   X+,R22
	ST   X,R23
	.ENDM

	.MACRO __MULBRR
	MULS R@0,R@1
	MOVW R30,R0
	.ENDM

	.MACRO __MULBRRU
	MUL  R@0,R@1
	MOVW R30,R0
	.ENDM

	.MACRO __MULBRR0
	MULS R@0,R@1
	.ENDM

	.MACRO __MULBRRU0
	MUL  R@0,R@1
	.ENDM

	.MACRO __MULBNWRU
	LDI  R26,@2
	MUL  R26,R@0
	MOVW R30,R0
	MUL  R26,R@1
	ADD  R31,R0
	.ENDM

	.CSEG
	.ORG 0x00

;START OF CODE MARKER
__START_OF_CODE:

;INTERRUPT VECTORS
	JMP  __RESET
	JMP  0x00
	JMP  0x00
	JMP  0x00
	JMP  0x00
	JMP  0x00
	JMP  0x00
	JMP  0x00
	JMP  0x00
	JMP  0x00
	JMP  0x00
	JMP  0x00
	JMP  0x00
	JMP  0x00
	JMP  0x00
	JMP  0x00
	JMP  0x00
	JMP  0x00
	JMP  0x00
	JMP  0x00
	JMP  0x00

_font:
	.DB  0x0,0x0,0x0,0x0,0x0,0x0,0x0,0x0
	.DB  0x0,0x0,0x0,0x0,0x0,0x0,0x0,0x0
	.DB  0x0,0x0,0x0,0x0,0x0,0x0,0x0,0x0
	.DB  0x0,0x0,0x0,0x0,0x0,0x0,0x0,0x0
	.DB  0x0,0x0,0x0,0x0,0x0,0x0,0x0,0x0
	.DB  0x0,0x0,0x0,0x0,0x0,0x0,0x0,0x0
	.DB  0x0,0x0,0x0,0x0,0x0,0x0,0x0,0x0
	.DB  0x0,0x0,0x0,0x0,0x0,0x0,0x0,0x0
	.DB  0x0,0x0,0x0,0x0,0x0,0x0,0x0,0x0
	.DB  0x0,0x0,0x0,0x0,0x0,0x0,0x0,0x0
	.DB  0x0,0x0,0x0,0x0,0x0,0x0,0x0,0x0
	.DB  0x0,0x0,0x0,0x0,0x0,0x0,0x0,0x0
	.DB  0x0,0x0,0x0,0x0,0x0,0x0,0x0,0x0
	.DB  0x0,0x0,0x0,0x0,0x0,0x0,0x0,0x0
	.DB  0x0,0x0,0x0,0x0,0x0,0x0,0x0,0x0
	.DB  0x0,0x0,0x0,0x0,0x0,0x0,0x0,0x0
	.DB  0x20,0x20,0x28,0x28,0x68,0xB0,0x60,0x20
	.DB  0x20,0x20,0x28,0x2A,0x28,0x30,0x20,0x20
	.DB  0x0,0x80,0x80,0x44,0x32,0x24,0x20,0x20
	.DB  0x0,0x24,0x24,0x24,0x38,0x20,0x20,0x20
	.DB  0x20,0x20,0x20,0x20,0x24,0x2A,0x11,0x0
	.DB  0x20,0x20,0x20,0x24,0x2A,0x11,0x20,0x20
	.DB  0x30,0x20,0x20,0x20,0x24,0x2A,0x11,0x20
	.DB  0x20,0x20,0x30,0x20,0x30,0x28,0x28,0x18
	.DB  0x20,0x24,0x22,0x21,0x24,0x2A,0x11,0x0
	.DB  0x24,0x22,0x21,0x24,0x2A,0x11,0x20,0x20
	.DB  0x30,0x24,0x22,0x21,0x24,0x2A,0x11,0x20
	.DB  0x0,0x80,0x80,0x40,0x30,0x20,0x20,0x20
	.DB  0x20,0x20,0x20,0x60,0xA0,0x60,0x28,0x30
	.DB  0x20,0x20,0x20,0x60,0xB0,0x60,0x20,0x20
	.DB  0x0,0x30,0x28,0x60,0xA0,0x60,0x30,0x20
	.DB  0x0,0x4,0x6,0x1D,0x25,0x24,0x20,0x20
	.DB  0x0,0x0,0x0,0x0,0x0,0x0,0x0,0x0
	.DB  0x0,0x0,0x4F,0x0,0x0,0x0,0x0,0x0
	.DB  0x0,0x7,0x0,0x7,0x0,0x0,0x0,0x0
	.DB  0x0,0x14,0x7F,0x14,0x7F,0x14,0x0,0x0
	.DB  0x0,0x24,0x2A,0x7F,0x2A,0x12,0x0,0x0
	.DB  0x0,0x23,0x13,0x8,0x64,0x62,0x0,0x0
	.DB  0x0,0x36,0x49,0x55,0x22,0x40,0x0,0x0
	.DB  0x0,0x0,0x5,0x3,0x0,0x0,0x0,0x0
	.DB  0x0,0x1C,0x22,0x41,0x0,0x0,0x0,0x0
	.DB  0x0,0x41,0x22,0x1C,0x0,0x0,0x0,0x0
	.DB  0x0,0x14,0x8,0x3E,0x8,0x14,0x0,0x0
	.DB  0x0,0x8,0x8,0x3E,0x8,0x8,0x0,0x0
	.DB  0x0,0x0,0x28,0x18,0x0,0x0,0x0,0x0
	.DB  0x0,0x8,0x8,0x8,0x8,0x8,0x8,0x0
	.DB  0x0,0x30,0x30,0x0,0x0,0x0,0x0,0x0
	.DB  0x0,0x20,0x10,0x8,0x4,0x2,0x0,0x0
	.DB  0x0,0x3E,0x51,0x49,0x45,0x3E,0x0,0x0
	.DB  0x0,0x0,0x42,0x7F,0x40,0x0,0x0,0x0
	.DB  0x0,0x42,0x61,0x51,0x49,0x46,0x0,0x0
	.DB  0x0,0x21,0x41,0x45,0x4B,0x31,0x0,0x0
	.DB  0x0,0x18,0x14,0x12,0x7F,0x10,0x0,0x0
	.DB  0x0,0x0,0x27,0x45,0x45,0x45,0x39,0x0
	.DB  0x0,0x3C,0x4A,0x49,0x49,0x30,0x0,0x0
	.DB  0x0,0x1,0x71,0x9,0x5,0x3,0x0,0x0
	.DB  0x0,0x36,0x49,0x49,0x49,0x36,0x0,0x0
	.DB  0x0,0x6,0x49,0x49,0x29,0x1E,0x0,0x0
	.DB  0x0,0x0,0x36,0x36,0x0,0x0,0x0,0x0
	.DB  0x0,0x0,0x56,0x36,0x0,0x0,0x0,0x0
	.DB  0x0,0x8,0x14,0x22,0x41,0x0,0x0,0x0
	.DB  0x0,0x24,0x24,0x24,0x24,0x24,0x0,0x0
	.DB  0x0,0x0,0x41,0x22,0x14,0x8,0x0,0x0
	.DB  0x0,0x2,0x1,0x51,0x9,0x6,0x0,0x0
	.DB  0x0,0x32,0x49,0x79,0x41,0x3E,0x0,0x0
	.DB  0x0,0x7E,0x11,0x11,0x11,0x7E,0x0,0x0
	.DB  0x0,0x7F,0x49,0x49,0x49,0x36,0x0,0x0
	.DB  0x0,0x3E,0x41,0x41,0x41,0x22,0x0,0x0
	.DB  0x0,0x7F,0x41,0x41,0x22,0x1C,0x0,0x0
	.DB  0x0,0x7F,0x49,0x49,0x49,0x41,0x0,0x0
	.DB  0x0,0x7F,0x9,0x9,0x9,0x1,0x0,0x0
	.DB  0x0,0x3E,0x41,0x49,0x49,0x3A,0x0,0x0
	.DB  0x0,0x7F,0x8,0x8,0x8,0x7F,0x0,0x0
	.DB  0x0,0x0,0x41,0x7F,0x41,0x0,0x0,0x0
	.DB  0x0,0x20,0x40,0x41,0x3F,0x1,0x0,0x0
	.DB  0x0,0x7F,0x8,0x14,0x22,0x41,0x0,0x0
	.DB  0x0,0x7F,0x40,0x40,0x40,0x40,0x0,0x0
	.DB  0x0,0x7F,0x2,0xC,0x2,0x7F,0x0,0x0
	.DB  0x0,0x7F,0x4,0x8,0x10,0x7F,0x0,0x0
	.DB  0x0,0x3E,0x41,0x41,0x41,0x3E,0x0,0x0
	.DB  0x0,0x7F,0x9,0x9,0x9,0x6,0x0,0x0
	.DB  0x3E,0x41,0x51,0x21,0x5E,0x0,0x0,0x0
	.DB  0x0,0x7F,0x9,0x19,0x29,0x46,0x0,0x0
	.DB  0x0,0x46,0x49,0x49,0x49,0x31,0x0,0x0
	.DB  0x0,0x1,0x1,0x7F,0x1,0x1,0x0,0x0
	.DB  0x0,0x3F,0x40,0x40,0x40,0x3F,0x0,0x0
	.DB  0x0,0x1F,0x20,0x40,0x20,0x1F,0x0,0x0
	.DB  0x0,0x3F,0x40,0x60,0x40,0x3F,0x0,0x0
	.DB  0x0,0x63,0x14,0x8,0x14,0x63,0x0,0x0
	.DB  0x0,0x7,0x8,0x70,0x8,0x7,0x0,0x0
	.DB  0x0,0x61,0x51,0x49,0x45,0x43,0x0,0x0
	.DB  0x0,0x7F,0x41,0x41,0x0,0x0,0x0,0x0
	.DB  0x0,0x15,0x16,0x7C,0x16,0x15,0x0,0x0
	.DB  0x0,0x41,0x41,0x7F,0x0,0x0,0x0,0x0
	.DB  0x0,0x4,0x2,0x1,0x2,0x4,0x0,0x0
	.DB  0x0,0x40,0x40,0x40,0x40,0x40,0x0,0x0
	.DB  0x0,0x1,0x2,0x4,0x0,0x0,0x0,0x0
	.DB  0x0,0x20,0x54,0x54,0x54,0x78,0x0,0x0
	.DB  0x0,0x7F,0x44,0x44,0x44,0x38,0x0,0x0
	.DB  0x0,0x38,0x44,0x44,0x44,0x0,0x0,0x0
	.DB  0x0,0x38,0x44,0x44,0x48,0x7F,0x0,0x0
	.DB  0x0,0x38,0x54,0x54,0x54,0x18,0x0,0x0
	.DB  0x0,0x10,0x7E,0x11,0x1,0x2,0x0,0x0
	.DB  0x0,0xC,0x52,0x52,0x52,0x3E,0x0,0x0
	.DB  0x0,0x7F,0x8,0x4,0x4,0x78,0x0,0x0
	.DB  0x0,0x0,0x44,0x7D,0x40,0x0,0x0,0x0
	.DB  0x0,0x20,0x40,0x40,0x3D,0x0,0x0,0x0
	.DB  0x0,0x7F,0x10,0x28,0x44,0x0,0x0,0x0
	.DB  0x0,0x0,0x41,0x7F,0x40,0x0,0x0,0x0
	.DB  0x0,0x7C,0x4,0x18,0x4,0x78,0x0,0x0
	.DB  0x0,0x7C,0x8,0x4,0x4,0x78,0x0,0x0
	.DB  0x0,0x38,0x44,0x44,0x44,0x38,0x0,0x0
	.DB  0x0,0x7C,0x14,0x14,0x14,0x8,0x0,0x0
	.DB  0x0,0x8,0x14,0x14,0x18,0x7C,0x0,0x0
	.DB  0x0,0x7C,0x8,0x4,0x4,0x8,0x0,0x0
	.DB  0x0,0x48,0x54,0x54,0x54,0x20,0x0,0x0
	.DB  0x0,0x4,0x3F,0x44,0x40,0x20,0x0,0x0
	.DB  0x0,0x3C,0x40,0x40,0x20,0x7C,0x0,0x0
	.DB  0x0,0x1C,0x20,0x40,0x20,0x1C,0x0,0x0
	.DB  0x0,0x1E,0x20,0x10,0x20,0x1E,0x0,0x0
	.DB  0x0,0x22,0x14,0x8,0x14,0x22,0x0,0x0
	.DB  0x0,0x6,0x48,0x48,0x48,0x3E,0x0,0x0
	.DB  0x0,0x44,0x64,0x54,0x4C,0x44,0x0,0x0
	.DB  0x0,0x8,0x36,0x41,0x0,0x0,0x0,0x0
	.DB  0x0,0x0,0x0,0x7F,0x0,0x0,0x0,0x0
	.DB  0x0,0x41,0x36,0x8,0x0,0x0,0x0,0x0
	.DB  0x0,0x8,0x8,0x2A,0x1C,0x8,0x0,0x0
	.DB  0x0,0x8,0x1C,0x2A,0x8,0x8,0x0,0x0
	.DB  0x0,0x3C,0x42,0x41,0x42,0x3C,0x0,0x0
	.DB  0x0,0x30,0x28,0x60,0xA0,0x60,0x28,0x30
	.DB  0x20,0x20,0x20,0x20,0xA0,0x20,0x28,0x30
	.DB  0x20,0x20,0x20,0x20,0xB0,0x20,0x20,0x20
	.DB  0x0,0x30,0x28,0x20,0xA0,0x20,0x30,0x20
	.DB  0x20,0x20,0x20,0x22,0x20,0x22,0x28,0x30
	.DB  0x20,0x20,0x20,0x22,0x30,0x22,0x20,0x20
	.DB  0x0,0x30,0x28,0x22,0x20,0x22,0x30,0x20
	.DB  0x20,0x20,0x20,0x22,0x21,0x22,0x28,0x30
	.DB  0x20,0x20,0x20,0x22,0x31,0x22,0x20,0x20
	.DB  0x0,0x30,0x28,0x22,0x21,0x22,0x30,0x20
	.DB  0x20,0x20,0x28,0x28,0x28,0xB0,0x20,0x20
	.DB  0x20,0x20,0x28,0x28,0x28,0x30,0x20,0x20
	.DB  0x0,0xC0,0xA8,0x28,0x68,0xB0,0x60,0x20
	.DB  0x0,0x0,0x80,0x80,0x44,0x32,0x4,0x0
	.DB  0x0,0x24,0x25,0x24,0x38,0x20,0x20,0x20
	.DB  0x30,0x24,0x22,0x21,0x24,0x2A,0x11,0x0
	.DB  0x0,0x80,0x80,0x40,0x34,0x20,0x20,0x20
	.DB  0x20,0x20,0x20,0x38,0x20,0x38,0x20,0x18
	.DB  0x20,0x20,0x38,0x20,0x38,0x20,0x38,0x20
	.DB  0x60,0x80,0x80,0x78,0x20,0x38,0x20,0x18
	.DB  0x20,0x20,0x20,0x38,0x22,0x39,0x22,0x18
	.DB  0x20,0x20,0x38,0x22,0x39,0x22,0x38,0x20
	.DB  0x60,0x80,0x80,0x78,0x22,0x39,0x22,0x18
	.DB  0x30,0x20,0x20,0x20,0x24,0x2A,0x11,0x0
	.DB  0x20,0x30,0x20,0x30,0x28,0x28,0x38,0x20
	.DB  0x60,0x80,0x80,0x60,0x30,0x28,0x28,0x38
	.DB  0x20,0x20,0x30,0x20,0x30,0x28,0x2A,0x18
	.DB  0x20,0x30,0x20,0x30,0x28,0x2A,0x38,0x20
	.DB  0x60,0x80,0x80,0x60,0x30,0x28,0x2A,0x38
	.DB  0x20,0x20,0x3E,0x30,0x28,0x28,0x38,0x20
	.DB  0x20,0x20,0x3E,0x30,0x28,0x2A,0x38,0x20
	.DB  0x20,0x20,0x20,0x20,0x30,0x28,0x28,0x0
	.DB  0x20,0x20,0x20,0x30,0x28,0x28,0x20,0x20
	.DB  0x0,0x40,0xA0,0xB0,0x28,0x28,0x20,0x20
	.DB  0x20,0x20,0x20,0x20,0x30,0x28,0x2A,0x0
	.DB  0x20,0x20,0x20,0x30,0x28,0x2A,0x20,0x20
	.DB  0x0,0x40,0xA0,0xB0,0x28,0x2A,0x20,0x20
	.DB  0x20,0x20,0x20,0x20,0x30,0x28,0x2A,0x30
	.DB  0x20,0x20,0x30,0x28,0x2A,0x30,0x20,0x20
	.DB  0x0,0x18,0x20,0x20,0x30,0x28,0x2A,0x30
	.DB  0x20,0x20,0x20,0x20,0x30,0x2A,0x28,0x32
	.DB  0x20,0x20,0x30,0x2A,0x28,0x32,0x20,0x20
	.DB  0x60,0x80,0x80,0xB2,0xA8,0x7A,0x20,0x20
	.DB  0x22,0x25,0x25,0x25,0x25,0x25,0x25,0x19
	.DB  0x20,0x20,0x20,0x1C,0x22,0x21,0x20,0x20
	.DB  0x30,0x28,0x2C,0x2A,0x20,0x3F,0x20,0x20
	.DB  0x20,0x20,0x20,0x20,0x20,0x20,0x1F,0x0
	.DB  0x20,0x20,0x20,0x20,0x1F,0x20,0x20,0x20
	.DB  0x0,0x30,0x40,0x40,0x3F,0x20,0x20,0x20
	.DB  0x20,0x20,0x20,0x20,0x30,0x48,0x48,0x30
	.DB  0x20,0x20,0x30,0x48,0x48,0x30,0x20,0x20
	.DB  0x80,0x40,0x30,0x48,0x48,0x30,0x20,0x20
	.DB  0x20,0x20,0x20,0x20,0x22,0x20,0x18,0x0
	.DB  0x20,0x20,0x20,0x20,0x1A,0x20,0x20,0x20
	.DB  0x30,0x40,0x44,0x40,0x30,0x20,0x20,0x20
	.DB  0x20,0x20,0x20,0x30,0x28,0x3A,0x2C,0x18
	.DB  0x20,0x20,0x30,0x28,0x3A,0x2C,0x38,0x20
	.DB  0x0,0x18,0x14,0x14,0x18,0x20,0x20,0x20
	.DB  0x0,0x21,0x22,0x24,0x28,0x10,0xF,0x0
	.DB  0x0,0xB0,0xA8,0x78,0x20,0x20,0x20,0x20
	.DB  0x20,0x20,0x20,0xA0,0x20,0xA0,0x28,0x30
	.DB  0x20,0x20,0x20,0xA0,0x30,0xA0,0x20,0x20
	.DB  0x0,0x60,0x80,0x80,0xA0,0x50,0x10,0x20
	.DB  0x0,0x1E,0x20,0x20,0x20,0x20,0x20,0x20
	.DB  0x0,0x20,0x30,0x28,0x28,0x20,0x0,0x0
	.DB  0x0,0x4,0x2,0x2,0x3A,0x2,0x2,0x1
	.DB  0x0,0x0,0x4,0x6,0x3D,0x5,0x4,0x0
	.DB  0x0,0x0,0x4,0xB6,0xAD,0x7D,0x4,0x0
	.DB  0x0,0x0,0x80,0xC0,0xBF,0xA0,0x80,0x0
	.DB  0x4,0x66,0x85,0x95,0xA8,0xA8,0x48,0x0
	.DB  0x0,0x0,0x0,0x3F,0x0,0x0,0x0,0x0
	.DB  0x0,0x30,0x28,0x20,0xA0,0x20,0x28,0x30
	.DB  0x0,0x0,0x30,0x2A,0x28,0x32,0x0,0x0
	.DB  0x0,0x30,0x28,0x22,0x20,0x22,0x28,0x30
	.DB  0x0,0x30,0x28,0x22,0x21,0x22,0x28,0x30
	.DB  0x0,0xC0,0xA8,0xA8,0x28,0xB0,0x20,0x20
	.DB  0x0,0xC0,0xA8,0xA8,0xA8,0x30,0x20,0x20
	.DB  0x0,0xC0,0xA8,0xAA,0x28,0x30,0x20,0x20
	.DB  0x0,0x0,0x24,0x24,0x24,0x38,0x0,0x0
	.DB  0x0,0x0,0x24,0x25,0x24,0x38,0x0,0x0
	.DB  0x0,0x80,0x80,0x40,0x30,0x0,0x0,0x0
	.DB  0x0,0x0,0x80,0x80,0x40,0x34,0x0,0x0
	.DB  0x60,0x80,0x80,0x78,0x20,0x38,0x20,0x18
	.DB  0x60,0x80,0x80,0x78,0x22,0x39,0x22,0x18
	.DB  0x60,0x80,0x80,0x60,0x30,0x28,0x28,0x18
	.DB  0x60,0x80,0x80,0x60,0x30,0x28,0x2A,0x18
	.DB  0x0,0x22,0x14,0x8,0x14,0x22,0x0,0x0
	.DB  0x20,0x20,0x3E,0x30,0x28,0x28,0x18,0x0
	.DB  0x20,0x20,0x3E,0x30,0x28,0x2A,0x18,0x0
	.DB  0x0,0x0,0x40,0xA0,0xB0,0x28,0x28,0x0
	.DB  0x0,0x0,0x40,0xA0,0xB0,0x2A,0x28,0x0
	.DB  0x20,0x20,0x20,0x20,0x20,0x20,0x20,0x20
	.DB  0x0,0x18,0x20,0x20,0x30,0x28,0x2A,0x30
	.DB  0x0,0x60,0x80,0x80,0xB2,0xA8,0x7A,0x0
	.DB  0x0,0x30,0x28,0x2C,0x2A,0x20,0x3F,0x0
	.DB  0x0,0x40,0xA9,0xAA,0xA8,0xF0,0x0,0x0
	.DB  0x0,0x0,0x60,0x80,0x80,0x7E,0x0,0x0
	.DB  0x0,0x40,0xAA,0xA9,0xAA,0xF0,0x0,0x0
	.DB  0x0,0x0,0xC0,0x20,0x30,0x28,0x28,0x30
	.DB  0x0,0x0,0x60,0x80,0x88,0x80,0x60,0x0
	.DB  0x0,0x0,0x30,0x28,0x28,0x30,0x0,0x0
	.DB  0x0,0x0,0x0,0xB0,0xA8,0x78,0x0,0x0
	.DB  0x4,0x26,0x25,0x25,0x28,0x10,0xF,0x0
	.DB  0x4,0x22,0x22,0x26,0x29,0x10,0xF,0x0
	.DB  0x0,0x21,0x22,0x24,0xA8,0xD0,0xAF,0xA0
	.DB  0x0,0x70,0xAA,0xA9,0xAA,0x30,0x0,0x0
	.DB  0x0,0x70,0xAA,0xA8,0xAA,0x30,0x0,0x0
	.DB  0x0,0x30,0x40,0x40,0x50,0x28,0x8,0x0
	.DB  0x0,0x30,0xC0,0x40,0xD0,0x28,0x8,0x0
	.DB  0x0,0x0,0x2,0x79,0x2,0x0,0x0,0x0
	.DB  0x0,0x0,0x2,0x78,0x2,0x0,0x0,0x0
	.DB  0x0,0x0,0x0,0x0,0x0,0x5,0x5,0x5
	.DB  0x0,0x0,0x0,0x4,0x3,0xB,0x6,0x6
	.DB  0xA0,0xA0,0xA0,0x0,0x0,0x0,0x0,0x0
	.DB  0x0,0x0,0x1,0x1,0x1,0x1,0x0,0x0
	.DB  0x0,0x21,0x22,0x24,0x28,0x10,0x2F,0x20
	.DB  0x0,0x0,0x0,0x0,0x0,0x4,0x3,0x3
	.DB  0x0,0x0,0x80,0x80,0x80,0x80,0x0,0x0
	.DB  0x0,0x0,0x10,0x10,0x54,0x10,0x10,0x0
	.DB  0x0,0x0,0x2,0x4,0x2,0x4,0x2,0x0
	.DB  0x20,0x24,0x26,0x25,0x25,0x20,0x28,0x30
	.DB  0x20,0x24,0x26,0x25,0x35,0x20,0x20,0x20
	.DB  0x8,0x6C,0x8A,0x8A,0xA0,0x50,0x10,0x20
	.DB  0x4,0xB6,0xAD,0x7D,0x24,0x20,0x20,0x20
	.DB  0x0,0x19,0x14,0x15,0x18,0x20,0x20,0x20
	.DB  0x4,0x2,0x2,0x1A,0x22,0x22,0x21,0x20
	.DB  0x0,0x40,0x60,0x50,0x48,0x50,0x40,0x40
_map:
	.DB  0xC1,0xC1,0xC1,0xC1,0x0,0x0,0xC2,0xC2
	.DB  0xFE,0xFE,0x1,0x0,0xC3,0xC3,0x1F,0x1F
	.DB  0x1,0x0,0xC4,0xC4,0xFC,0xFC,0x1,0x0
	.DB  0xC5,0xC5,0xC5,0xC5,0x1,0x1,0xC6,0xBD
	.DB  0xBF,0xBE,0x1,0x1,0xC7,0xC7,0xC0,0xC0
	.DB  0x1,0x0,0xC8,0x82,0x84,0x83,0x1,0x1
	.DB  0xC9,0xC9,0xFD,0xFD,0x1,0x0,0xCA,0x85
	.DB  0x87,0x86,0x1,0x1,0xCB,0x88,0x8A,0x89
	.DB  0x1,0x1,0xCC,0x8B,0xCC,0x8B,0x1,0x1
	.DB  0xCD,0x8C,0xCD,0x8C,0x1,0x1,0xCE,0x11
	.DB  0xCE,0x11,0x1,0x1,0xCF,0xCF,0x13,0x13
	.DB  0x1,0x0,0xD0,0xD0,0x8F,0x8F,0x1,0x0
	.DB  0xD1,0xD1,0x1B,0x1B,0x1,0x0,0xD2,0xD2
	.DB  0x91,0x91,0x1,0x0,0xD3,0x92,0x94,0x93
	.DB  0x1,0x1,0xD4,0x95,0x97,0x96,0x1,0x1
	.DB  0xD5,0x17,0x9A,0x99,0x1,0x1,0xD6,0x9B
	.DB  0x9D,0x9C,0x1,0x1,0xD7,0xD7,0xD7,0xD7
	.DB  0x0,0x0,0xD8,0xD8,0x9E,0x9E,0x1,0x1
	.DB  0xD9,0xD9,0x9F,0x9F,0x1,0x1,0xDA,0xA0
	.DB  0xA2,0xA1,0x1,0x1,0xDB,0xA3,0xA5,0xA4
	.DB  0x1,0x1,0xDC,0xDC,0xDC,0xDC,0x0,0x0
	.DB  0xDD,0xA6,0xA8,0xA7,0x1,0x1,0xDE,0xA9
	.DB  0xAB,0xAA,0x1,0x1,0xDF,0xAC,0xAE,0xAD
	.DB  0x1,0x1,0xE0,0xE0,0xE0,0xE0,0x0,0x0
	.DB  0xE1,0xAF,0xB1,0xB0,0x1,0x1,0xE2,0xE2
	.DB  0xE2,0xE2,0x0,0x0,0xE3,0xB2,0xB4,0xB3
	.DB  0x1,0x1,0xE4,0xB5,0xB7,0xB6,0x1,0x1
	.DB  0xE5,0xB8,0xBA,0xB9,0x1,0x1,0xE6,0xE6
	.DB  0xBC,0xBC,0x1,0x0,0xE7,0xE7,0xE7,0xE7
	.DB  0x0,0x0,0xE8,0xE8,0xE8,0xE8,0x0,0x0
	.DB  0xE9,0xE9,0xE9,0xE9,0x0,0x0,0xEA,0xEA
	.DB  0xEA,0xEA,0x0,0x0,0xEB,0xEB,0xEB,0xEB
	.DB  0x0,0x0,0xEC,0xBD,0xBF,0xBE,0x1,0x1
	.DB  0xED,0xBD,0xBF,0xBE,0x1,0x1,0xEE,0xEE
	.DB  0xEE,0xEE,0x0,0x0,0xEF,0xEF,0xEF,0xEF
	.DB  0x0,0x0,0xF0,0xF0,0xF0,0xF0,0x0,0x0
	.DB  0xF1,0xF1,0xF1,0xF1,0x0,0x0,0xF2,0xF2
	.DB  0xF2,0xF2,0x0,0x0,0xF3,0xF3,0xF3,0xF3
	.DB  0x0,0x0,0xF5,0xF5,0xF5,0xF5,0x0,0x0
	.DB  0xF6,0xF6,0xF6,0xF6,0x0,0x0,0xF7,0xF7
	.DB  0xF7,0xF7,0x0,0x0,0xF8,0xF8,0xF8,0xF8
	.DB  0x0,0x0,0xFB,0xF9,0xFB,0xFA,0x1,0x1
	.DB  0xBB,0xBB,0xF4,0xF4,0x1,0x0,0x81,0x1C
	.DB  0x1E,0x1D,0x1,0x1,0x90,0x18,0x1A,0x19
	.DB  0x1,0x1,0x98,0x14,0x16,0x15,0x1,0x1
	.DB  0x8E,0x8E,0x12,0x12,0x1,0x0,0x8D,0x10
	.DB  0x8D,0x10,0x1,0x1
_tbl10_G100:
	.DB  0x10,0x27,0xE8,0x3,0x64,0x0,0xA,0x0
	.DB  0x1,0x0
_tbl16_G100:
	.DB  0x0,0x10,0x0,0x1,0x10,0x0,0x1,0x0

_0x3:
	.DB  0xC1
_0x2020060:
	.DB  0x1
_0x2020000:
	.DB  0x2D,0x4E,0x41,0x4E,0x0,0x49,0x4E,0x46
	.DB  0x0

__GLOBAL_INI_TBL:
	.DW  0x01
	.DW  _prevLet_G000
	.DW  _0x3*2

	.DW  0x01
	.DW  __seed_G101
	.DW  _0x2020060*2

_0xFFFFFFFF:
	.DW  0

#define __GLOBAL_INI_TBL_PRESENT 1

__RESET:
	CLI
	CLR  R30
	OUT  EECR,R30

;INTERRUPT VECTORS ARE PLACED
;AT THE START OF FLASH
	LDI  R31,1
	OUT  GICR,R31
	OUT  GICR,R30
	OUT  MCUCR,R30

;CLEAR R2-R14
	LDI  R24,(14-2)+1
	LDI  R26,2
	CLR  R27
__CLEAR_REG:
	ST   X+,R30
	DEC  R24
	BRNE __CLEAR_REG

;CLEAR SRAM
	LDI  R24,LOW(__CLEAR_SRAM_SIZE)
	LDI  R25,HIGH(__CLEAR_SRAM_SIZE)
	LDI  R26,__SRAM_START
__CLEAR_SRAM:
	ST   X+,R30
	SBIW R24,1
	BRNE __CLEAR_SRAM

;GLOBAL VARIABLES INITIALIZATION
	LDI  R30,LOW(__GLOBAL_INI_TBL*2)
	LDI  R31,HIGH(__GLOBAL_INI_TBL*2)
__GLOBAL_INI_NEXT:
	LPM  R24,Z+
	LPM  R25,Z+
	SBIW R24,0
	BREQ __GLOBAL_INI_END
	LPM  R26,Z+
	LPM  R27,Z+
	LPM  R0,Z+
	LPM  R1,Z+
	MOVW R22,R30
	MOVW R30,R0
__GLOBAL_INI_LOOP:
	LPM  R0,Z+
	ST   X+,R0
	SBIW R24,1
	BRNE __GLOBAL_INI_LOOP
	MOVW R30,R22
	RJMP __GLOBAL_INI_NEXT
__GLOBAL_INI_END:

;HARDWARE STACK POINTER INITIALIZATION
	LDI  R30,LOW(__SRAM_END-__HEAP_SIZE)
	OUT  SPL,R30
	LDI  R30,HIGH(__SRAM_END-__HEAP_SIZE)
	OUT  SPH,R30

;DATA STACK POINTER INITIALIZATION
	LDI  R28,LOW(__SRAM_START+__DSTACK_SIZE)
	LDI  R29,HIGH(__SRAM_START+__DSTACK_SIZE)

	JMP  _main

	.ESEG
	.ORG 0

	.DSEG
	.ORG 0x260

	.CSEG
;/* Az-12 MICLAB Part3
;   Danial Bazmandeh
;   97521135
;*/
;
;#include <mega32.h>
	#ifndef __SLEEP_DEFINED__
	#define __SLEEP_DEFINED__
	.EQU __se_bit=0x80
	.EQU __sm_mask=0x70
	.EQU __sm_powerdown=0x20
	.EQU __sm_powersave=0x30
	.EQU __sm_standby=0x60
	.EQU __sm_ext_standby=0x70
	.EQU __sm_adc_noise_red=0x10
	.SET power_ctrl_reg=mcucr
	#endif
;#include <delay.h>
;#include <stdio.h>
;#include "Includes/GLCD.h"

	.DSEG

	.CSEG
_trigger:
; .FSTART _trigger
	SBI  0x18,1
	__DELAY_USB 8
	CBI  0x18,1
	__DELAY_USB 8
	RET
; .FEND
_glcd_on:
; .FSTART _glcd_on
	SBI  0x18,2
	SBI  0x18,3
	CBI  0x18,4
	CBI  0x18,0
	LDI  R30,LOW(63)
	OUT  0x1B,R30
	RCALL _trigger
	RET
; .FEND
;	line -> Y+0
_goto_col:
; .FSTART _goto_col
	ST   -Y,R27
	ST   -Y,R26
	ST   -Y,R17
;	x -> Y+1
;	pattern -> R17
	CBI  0x18,4
	CBI  0x18,0
	LDD  R26,Y+1
	LDD  R27,Y+1+1
	CPI  R26,LOW(0x40)
	LDI  R30,HIGH(0x40)
	CPC  R27,R30
	BRSH _0x24
	SBI  0x18,2
	CBI  0x18,3
	LDD  R17,Y+1
	RJMP _0x29
_0x24:
	SBI  0x18,3
	CBI  0x18,2
	LDD  R30,Y+1
	SUBI R30,LOW(64)
	MOV  R17,R30
_0x29:
	MOV  R30,R17
	ORI  R30,0x40
	ANDI R30,0x7F
	MOV  R17,R30
	OUT  0x1B,R17
	RCALL _trigger
	LDD  R17,Y+0
	RJMP _0x20A0001
; .FEND
_goto_row:
; .FSTART _goto_row
	ST   -Y,R27
	ST   -Y,R26
	ST   -Y,R17
;	y -> Y+1
;	pattern -> R17
	CBI  0x18,4
	CBI  0x18,0
	LDD  R30,Y+1
	ORI  R30,LOW(0xB8)
	ANDI R30,0xBF
	MOV  R17,R30
	OUT  0x1B,R17
	RCALL _trigger
	LDD  R17,Y+0
	RJMP _0x20A0001
; .FEND
_goto_xy:
; .FSTART _goto_xy
	ST   -Y,R27
	ST   -Y,R26
;	x -> Y+2
;	y -> Y+0
	LDD  R26,Y+2
	LDD  R27,Y+2+1
	RCALL _goto_col
	LD   R26,Y
	LDD  R27,Y+1
	RCALL _goto_row
	ADIW R28,4
	RET
; .FEND
_glcd_write:
; .FSTART _glcd_write
	ST   -Y,R26
;	b -> Y+0
	SBI  0x18,4
	CBI  0x18,0
	LD   R30,Y
	OUT  0x1B,R30
	__DELAY_USB 3
	RCALL _trigger
	ADIW R28,1
	RET
; .FEND
_glcd_clrln:
; .FSTART _glcd_clrln
	ST   -Y,R26
	ST   -Y,R17
	ST   -Y,R16
;	ln -> Y+2
;	i -> R16,R17
	LDI  R30,LOW(0)
	LDI  R31,HIGH(0)
	CALL SUBOPT_0x0
	LDI  R30,LOW(64)
	LDI  R31,HIGH(64)
	CALL SUBOPT_0x0
	SBI  0x18,2
	__GETWRN 16,17,0
_0x39:
	__CPWRN 16,17,65
	BRGE _0x3A
	LDI  R26,LOW(0)
	RCALL _glcd_write
	__ADDWRN 16,17,1
	RJMP _0x39
_0x3A:
	LDD  R17,Y+1
	LDD  R16,Y+0
_0x20A0001:
	ADIW R28,3
	RET
; .FEND
_glcd_clear:
; .FSTART _glcd_clear
	ST   -Y,R17
	ST   -Y,R16
;	i -> R16,R17
	__GETWRN 16,17,0
_0x3C:
	__CPWRN 16,17,8
	BRGE _0x3D
	MOV  R26,R16
	RCALL _glcd_clrln
	__ADDWRN 16,17,1
	RJMP _0x3C
_0x3D:
	LD   R16,Y+
	LD   R17,Y+
	RET
; .FEND
;	status -> R17
_glcd_read:
; .FSTART _glcd_read
	ST   -Y,R26
	ST   -Y,R17
;	column -> Y+1
;	read_data -> R17
	LDI  R17,0
	LDI  R30,LOW(0)
	OUT  0x1A,R30
	SBI  0x18,0
	SBI  0x18,4
	LDD  R26,Y+1
	LDI  R30,LOW(64)
	CALL __LTB12U
	CPI  R30,0
	BRNE _0x50
	CBI  0x18,2
	RJMP _0x51
_0x50:
	SBI  0x18,2
_0x51:
	SBIS 0x18,2
	RJMP _0x52
	CBI  0x18,3
	RJMP _0x53
_0x52:
	SBI  0x18,3
_0x53:
	__DELAY_USB 3
	SBI  0x18,1
	__DELAY_USB 3
	CBI  0x18,1
	__DELAY_USB 53
	SBI  0x18,1
	__DELAY_USB 3
	IN   R17,25
	CBI  0x18,1
	__DELAY_USB 3
	LDI  R30,LOW(255)
	OUT  0x1A,R30
	MOV  R30,R17
	LDD  R17,Y+0
	ADIW R28,2
	RET
; .FEND
_point_at:
; .FSTART _point_at
	ST   -Y,R26
	ST   -Y,R17
;	x -> Y+4
;	y -> Y+2
;	color -> Y+1
;	pattern -> R17
	CALL SUBOPT_0x1
	LDD  R30,Y+1
	LDI  R31,0
	SBIW R30,0
	BRNE _0x5F
	LDD  R30,Y+2
	ANDI R30,LOW(0x7)
	LDI  R26,LOW(1)
	CALL __LSLB12
	COM  R30
	PUSH R30
	LDD  R26,Y+4
	RCALL _glcd_read
	POP  R26
	AND  R30,R26
	RJMP _0xD7
_0x5F:
	CPI  R30,LOW(0x1)
	LDI  R26,HIGH(0x1)
	CPC  R31,R26
	BRNE _0x5E
	LDD  R30,Y+2
	ANDI R30,LOW(0x7)
	LDI  R26,LOW(1)
	CALL __LSLB12
	PUSH R30
	LDD  R26,Y+4
	RCALL _glcd_read
	POP  R26
	OR   R30,R26
_0xD7:
	MOV  R17,R30
_0x5E:
	CALL SUBOPT_0x1
	MOV  R26,R17
	RCALL _glcd_write
	LDD  R17,Y+0
	ADIW R28,6
	RET
; .FEND
;	x -> Y+7
;	y -> Y+5
;	l -> Y+4
;	s -> Y+3
;	c -> Y+2
;	i -> R16,R17
_v_line:
; .FSTART _v_line
	ST   -Y,R26
	ST   -Y,R17
	ST   -Y,R16
;	x -> Y+8
;	y -> Y+6
;	l -> Y+4
;	s -> Y+3
;	c -> Y+2
;	i -> R16,R17
	__GETWRS 16,17,6
_0x65:
	LDD  R30,Y+4
	LDD  R31,Y+4+1
	LDD  R26,Y+6
	LDD  R27,Y+6+1
	ADD  R30,R26
	ADC  R31,R27
	CP   R16,R30
	CPC  R17,R31
	BRSH _0x66
	LDD  R30,Y+8
	LDD  R31,Y+8+1
	ST   -Y,R31
	ST   -Y,R30
	ST   -Y,R17
	ST   -Y,R16
	LDD  R26,Y+6
	RCALL _point_at
	LDD  R30,Y+3
	LDI  R31,0
	ADIW R30,1
	LDI  R31,0
	LDI  R31,0
	__ADDWRR 16,17,30,31
	RJMP _0x65
_0x66:
	LDD  R17,Y+1
	LDD  R16,Y+0
	ADIW R28,10
	RET
; .FEND
;	x1 -> Y+22
;	y1 -> Y+20
;	x2 -> Y+18
;	y2 -> Y+16
;	s -> Y+15
;	c -> Y+14
;	i -> R17
;	y01 -> R16
;	temp -> R19
;	a -> Y+10
;	b -> Y+6
;	y00 -> R18
;	y010 -> R21
;	x1 -> Y+8
;	y1 -> Y+6
;	x2 -> Y+4
;	y2 -> Y+2
;	s -> Y+1
;	c -> Y+0
;	x11 -> Y+16
;	y11 -> Y+14
;	x12 -> Y+12
;	y12 -> Y+10
;	x21 -> Y+8
;	y21 -> Y+6
;	x22 -> Y+4
;	y22 -> Y+2
;	s -> Y+1
;	c -> Y+0
;	x1 -> Y+9
;	y1 -> Y+7
;	x2 -> Y+5
;	y2 -> Y+3
;	l -> Y+2
;	s -> Y+1
;	c -> Y+0
;	x1 -> Y+9
;	y1 -> Y+7
;	x2 -> Y+5
;	y2 -> Y+3
;	l -> Y+2
;	s -> Y+1
;	c -> Y+0
;	x11 -> Y+18
;	y11 -> Y+16
;	x12 -> Y+14
;	y12 -> Y+12
;	l1 -> Y+11
;	x21 -> Y+9
;	y21 -> Y+7
;	x22 -> Y+5
;	y22 -> Y+3
;	l2 -> Y+2
;	s -> Y+1
;	c -> Y+0
;	x11 -> Y+18
;	y11 -> Y+16
;	x12 -> Y+14
;	y12 -> Y+12
;	l1 -> Y+11
;	x21 -> Y+9
;	y21 -> Y+7
;	x22 -> Y+5
;	y22 -> Y+3
;	l2 -> Y+2
;	s -> Y+1
;	c -> Y+0
_circle:
; .FSTART _circle
	ST   -Y,R26
	CALL __SAVELOCR4
;	x0 -> Y+10
;	y0 -> Y+8
;	r -> Y+6
;	s -> Y+5
;	c -> Y+4
;	i -> R17
;	y -> R16
;	y00 -> R19
	LDD  R19,Y+6
	LDI  R17,LOW(0)
_0x77:
	LDD  R30,Y+6
	LDD  R31,Y+6+1
	MOV  R26,R17
	LDI  R27,0
	CP   R26,R30
	CPC  R27,R31
	BRLO PC+2
	RJMP _0x78
	LDD  R26,Y+6
	LDD  R27,Y+6+1
	CALL __MULW12U
	MOVW R22,R30
	MOV  R26,R17
	CLR  R27
	MOV  R30,R17
	LDI  R31,0
	CALL __MULW12
	MOVW R26,R22
	SUB  R26,R30
	SBC  R27,R31
	CALL _isqrt
	MOV  R16,R30
	CALL SUBOPT_0x2
	CALL SUBOPT_0x3
	CALL SUBOPT_0x2
	CALL SUBOPT_0x4
	LDD  R26,Y+8
	RCALL _point_at
	CALL SUBOPT_0x5
	CALL SUBOPT_0x6
	CALL SUBOPT_0x3
	CALL SUBOPT_0x5
	CALL SUBOPT_0x6
	CALL SUBOPT_0x4
	LDD  R26,Y+8
	RCALL _point_at
	CALL SUBOPT_0x7
	SBIW R30,2
	BRLO _0x79
	CALL SUBOPT_0x8
	CALL SUBOPT_0x9
	CALL SUBOPT_0xA
	CALL SUBOPT_0x8
	CALL SUBOPT_0xB
	CALL SUBOPT_0x7
	CALL SUBOPT_0xA
	CALL SUBOPT_0xC
	CALL SUBOPT_0xD
	CALL SUBOPT_0x9
	CALL SUBOPT_0xA
	CALL SUBOPT_0xC
	CALL SUBOPT_0xD
	CALL SUBOPT_0xB
	CALL SUBOPT_0x7
	CALL SUBOPT_0xA
_0x79:
	MOV  R19,R16
	SUBI R17,-1
	RJMP _0x77
_0x78:
	CALL SUBOPT_0xE
	CALL SUBOPT_0xF
	CALL SUBOPT_0xE
	CALL SUBOPT_0x6
	CALL SUBOPT_0x4
	MOV  R30,R16
	LDI  R31,0
	CALL SUBOPT_0xA
	CALL SUBOPT_0xC
	CALL SUBOPT_0xF
	CALL SUBOPT_0xC
	CALL SUBOPT_0x6
	CALL SUBOPT_0x4
	MOV  R30,R16
	LDI  R31,0
	CALL SUBOPT_0xA
	CALL __LOADLOCR4
	ADIW R28,12
	RET
; .FEND
;	c -> Y+5
;	x -> Y+3
;	y -> Y+1
;	i -> R17
;	*large -> Y+6
;	c -> Y+5
;	size -> Y+4
;	i -> R17
;	j -> R16
;	temp -> R19
;	k -> R18
;	c -> Y+73
;	x -> Y+71
;	y -> Y+69
;	sz -> Y+68
;	i -> R17
;	j -> R16
;	k -> R19
;	large -> Y+4
;	c -> Y+6
;	x -> Y+4
;	y -> Y+2
;	l -> Y+1
;	sz -> Y+0
;	*c -> Y+9
;	x -> Y+7
;	y -> Y+5
;	l -> Y+4
;	sz -> Y+3
;	space -> Y+2
;	i -> R17
;	special -> R16
;	*bmp -> Y+12
;	x1 -> Y+10
;	y1 -> Y+8
;	x2 -> Y+6
;	y2 -> Y+4
;	i -> R16,R17
;	j -> R18,R19
;
;void main(void) {
; 0000 000B void main(void) {
_main:
; .FSTART _main
; 0000 000C     int i = 64;
; 0000 000D     int j = 32;
; 0000 000E 
; 0000 000F     DATADDR = 0xff;
;	i -> R16,R17
;	j -> R18,R19
	__GETWRN 16,17,64
	__GETWRN 18,19,32
	LDI  R30,LOW(255)
	OUT  0x1A,R30
; 0000 0010     DDRB = 0xFF;
	OUT  0x17,R30
; 0000 0011 
; 0000 0012     glcd_on();
	RCALL _glcd_on
; 0000 0013     glcd_clear();
	RCALL _glcd_clear
; 0000 0014 
; 0000 0015     while(1) {
_0xC7:
; 0000 0016         while(i < 93) {
_0xCA:
	__CPWRN 16,17,93
	BRGE _0xCC
; 0000 0017             circle(i, j, 3, 0, 1);
	CALL SUBOPT_0x10
; 0000 0018             i++;
; 0000 0019             j++;
	CALL SUBOPT_0x11
; 0000 001A             delay_ms(100);
; 0000 001B             glcd_clear();
; 0000 001C         }
	RJMP _0xCA
_0xCC:
; 0000 001D 
; 0000 001E         while(i < 125) {
_0xCD:
	__CPWRN 16,17,125
	BRGE _0xCF
; 0000 001F             circle(i, j, 3, 0, 1);
	CALL SUBOPT_0x10
; 0000 0020             i++;
; 0000 0021             j--;
	CALL SUBOPT_0x12
; 0000 0022             delay_ms(100);
; 0000 0023             glcd_clear();
; 0000 0024         }
	RJMP _0xCD
_0xCF:
; 0000 0025 
; 0000 0026         while(i > 100) {
_0xD0:
	__CPWRN 16,17,101
	BRLT _0xD2
; 0000 0027             circle(i, j, 3, 0, 1);
	CALL SUBOPT_0x13
; 0000 0028             i--;
; 0000 0029             j--;
	CALL SUBOPT_0x12
; 0000 002A             delay_ms(100);
; 0000 002B             glcd_clear();
; 0000 002C         }
	RJMP _0xD0
_0xD2:
; 0000 002D 
; 0000 002E         while(i > 70) {
_0xD3:
	__CPWRN 16,17,71
	BRLT _0xD5
; 0000 002F             circle(i,j,3,0,1);
	CALL SUBOPT_0x13
; 0000 0030             i--;
; 0000 0031             j++;
	CALL SUBOPT_0x11
; 0000 0032             delay_ms(100);
; 0000 0033             glcd_clear();
; 0000 0034         }
	RJMP _0xD3
_0xD5:
; 0000 0035 
; 0000 0036         i = 64;
	__GETWRN 16,17,64
; 0000 0037         j = 32;
	__GETWRN 18,19,32
; 0000 0038     }
	RJMP _0xC7
; 0000 0039 }
_0xD6:
	RJMP _0xD6
; .FEND
	#ifndef __SLEEP_DEFINED__
	#define __SLEEP_DEFINED__
	.EQU __se_bit=0x80
	.EQU __sm_mask=0x70
	.EQU __sm_powerdown=0x20
	.EQU __sm_powersave=0x30
	.EQU __sm_standby=0x60
	.EQU __sm_ext_standby=0x70
	.EQU __sm_adc_noise_red=0x10
	.SET power_ctrl_reg=mcucr
	#endif

	.CSEG

	.CSEG
_abs:
; .FSTART _abs
	ST   -Y,R27
	ST   -Y,R26
    ld   r30,y+
    ld   r31,y+
    sbiw r30,0
    brpl __abs0
    com  r30
    com  r31
    adiw r30,1
__abs0:
    ret
; .FEND

	.DSEG

	.CSEG

	.CSEG
_max:
; .FSTART _max
	ST   -Y,R27
	ST   -Y,R26
    ld   r26,y+
    ld   r27,y+
    ld   r30,y+
    ld   r31,y+
    cp   r26,r30
    cpc  r27,r31
    brlt __max0
    movw r30,r26
__max0:
    ret
; .FEND
_min:
; .FSTART _min
	ST   -Y,R27
	ST   -Y,R26
    ld   r26,y+
    ld   r27,y+
    ld   r30,y+
    ld   r31,y+
    cp   r30,r26
    cpc  r31,r27
    brlt __min0
    movw r30,r26
__min0:
    ret
; .FEND
_isqrt:
; .FSTART _isqrt
	ST   -Y,R27
	ST   -Y,R26
    ld   r26,y+
    ld   r27,y+
    clr	 r30
	clr	 r0
	ldi	 r22,0x80
	clt
__isqrt0:
	mov	 r1,r22
	lsr	 r1
	ror	 r0
	or	 r1,r30
	brts __isqrt1
	cp	 r26,r0
	cpc	 r27,r1
	brcs __isqrt2
__isqrt1:
	sub	 r26,r0
	sbc	 r27,r1
	or	 r30,r22
__isqrt2:
	bst	 r27,7
	lsl	 r26
	rol	 r27
	lsr	 r22
	brcc __isqrt0
	ret
; .FEND

	.CSEG

	.CSEG

	.DSEG
_prevLet_G000:
	.BYTE 0x2
_stat_G000:
	.BYTE 0x1
_prevX_G000:
	.BYTE 0x1
_prevY_G000:
	.BYTE 0x1
__seed_G101:
	.BYTE 0x4

	.CSEG
;OPTIMIZER ADDED SUBROUTINE, CALLED 2 TIMES, CODE SIZE REDUCTION:1 WORDS
SUBOPT_0x0:
	ST   -Y,R31
	ST   -Y,R30
	LDD  R26,Y+4
	CLR  R27
	JMP  _goto_xy

;OPTIMIZER ADDED SUBROUTINE, CALLED 2 TIMES, CODE SIZE REDUCTION:6 WORDS
SUBOPT_0x1:
	LDD  R30,Y+4
	LDD  R31,Y+4+1
	ST   -Y,R31
	ST   -Y,R30
	LDD  R30,Y+4
	LDD  R31,Y+4+1
	CALL __LSRW3
	MOVW R26,R30
	JMP  _goto_xy

;OPTIMIZER ADDED SUBROUTINE, CALLED 2 TIMES, CODE SIZE REDUCTION:7 WORDS
SUBOPT_0x2:
	MOV  R30,R17
	LDI  R31,0
	LDD  R26,Y+10
	LDD  R27,Y+10+1
	ADD  R30,R26
	ADC  R31,R27
	ST   -Y,R31
	ST   -Y,R30
	MOV  R30,R16
	LDI  R31,0
	LDD  R26,Y+10
	LDD  R27,Y+10+1
	RET

;OPTIMIZER ADDED SUBROUTINE, CALLED 2 TIMES, CODE SIZE REDUCTION:2 WORDS
SUBOPT_0x3:
	ADD  R30,R26
	ADC  R31,R27
	ST   -Y,R31
	ST   -Y,R30
	LDD  R26,Y+8
	JMP  _point_at

;OPTIMIZER ADDED SUBROUTINE, CALLED 12 TIMES, CODE SIZE REDUCTION:19 WORDS
SUBOPT_0x4:
	SUB  R26,R30
	SBC  R27,R31
	ST   -Y,R27
	ST   -Y,R26
	RET

;OPTIMIZER ADDED SUBROUTINE, CALLED 2 TIMES, CODE SIZE REDUCTION:1 WORDS
SUBOPT_0x5:
	MOV  R30,R17
	LDI  R31,0
	LDD  R26,Y+10
	LDD  R27,Y+10+1
	RJMP SUBOPT_0x4

;OPTIMIZER ADDED SUBROUTINE, CALLED 4 TIMES, CODE SIZE REDUCTION:3 WORDS
SUBOPT_0x6:
	MOV  R30,R16
	LDI  R31,0
	LDD  R26,Y+10
	LDD  R27,Y+10+1
	RET

;OPTIMIZER ADDED SUBROUTINE, CALLED 5 TIMES, CODE SIZE REDUCTION:21 WORDS
SUBOPT_0x7:
	MOV  R26,R19
	CLR  R27
	MOV  R30,R16
	LDI  R31,0
	SUB  R26,R30
	SBC  R27,R31
	JMP  _abs

;OPTIMIZER ADDED SUBROUTINE, CALLED 2 TIMES, CODE SIZE REDUCTION:10 WORDS
SUBOPT_0x8:
	MOV  R30,R17
	LDI  R31,0
	SBIW R30,1
	LDD  R26,Y+10
	LDD  R27,Y+10+1
	ADD  R30,R26
	ADC  R31,R27
	ST   -Y,R31
	ST   -Y,R30
	MOV  R30,R19
	LDI  R31,0
	ST   -Y,R31
	ST   -Y,R30
	MOV  R26,R16
	CLR  R27
	RET

;OPTIMIZER ADDED SUBROUTINE, CALLED 2 TIMES, CODE SIZE REDUCTION:6 WORDS
SUBOPT_0x9:
	CALL _min
	LDD  R26,Y+10
	LDD  R27,Y+10+1
	ADD  R30,R26
	ADC  R31,R27
	ADIW R30,1
	ST   -Y,R31
	ST   -Y,R30
	RJMP SUBOPT_0x7

;OPTIMIZER ADDED SUBROUTINE, CALLED 8 TIMES, CODE SIZE REDUCTION:32 WORDS
SUBOPT_0xA:
	ST   -Y,R31
	ST   -Y,R30
	LDD  R30,Y+11
	ST   -Y,R30
	LDD  R26,Y+11
	JMP  _v_line

;OPTIMIZER ADDED SUBROUTINE, CALLED 2 TIMES, CODE SIZE REDUCTION:1 WORDS
SUBOPT_0xB:
	CALL _max
	LDD  R26,Y+10
	LDD  R27,Y+10+1
	RJMP SUBOPT_0x4

;OPTIMIZER ADDED SUBROUTINE, CALLED 4 TIMES, CODE SIZE REDUCTION:12 WORDS
SUBOPT_0xC:
	MOV  R30,R17
	LDI  R31,0
	SBIW R30,1
	LDD  R26,Y+10
	LDD  R27,Y+10+1
	RJMP SUBOPT_0x4

;OPTIMIZER ADDED SUBROUTINE, CALLED 2 TIMES, CODE SIZE REDUCTION:1 WORDS
SUBOPT_0xD:
	MOV  R30,R19
	LDI  R31,0
	ST   -Y,R31
	ST   -Y,R30
	MOV  R26,R16
	CLR  R27
	RET

;OPTIMIZER ADDED SUBROUTINE, CALLED 2 TIMES, CODE SIZE REDUCTION:4 WORDS
SUBOPT_0xE:
	MOV  R30,R17
	LDI  R31,0
	SBIW R30,1
	LDD  R26,Y+10
	LDD  R27,Y+10+1
	ADD  R30,R26
	ADC  R31,R27
	ST   -Y,R31
	ST   -Y,R30
	RET

;OPTIMIZER ADDED SUBROUTINE, CALLED 2 TIMES, CODE SIZE REDUCTION:3 WORDS
SUBOPT_0xF:
	LDD  R30,Y+10
	LDD  R31,Y+10+1
	ST   -Y,R31
	ST   -Y,R30
	MOV  R30,R16
	LDI  R31,0
	RJMP SUBOPT_0xA

;OPTIMIZER ADDED SUBROUTINE, CALLED 2 TIMES, CODE SIZE REDUCTION:10 WORDS
SUBOPT_0x10:
	ST   -Y,R17
	ST   -Y,R16
	ST   -Y,R19
	ST   -Y,R18
	LDI  R30,LOW(3)
	LDI  R31,HIGH(3)
	ST   -Y,R31
	ST   -Y,R30
	LDI  R30,LOW(0)
	ST   -Y,R30
	LDI  R26,LOW(1)
	CALL _circle
	__ADDWRN 16,17,1
	RET

;OPTIMIZER ADDED SUBROUTINE, CALLED 2 TIMES, CODE SIZE REDUCTION:3 WORDS
SUBOPT_0x11:
	__ADDWRN 18,19,1
	LDI  R26,LOW(100)
	LDI  R27,0
	CALL _delay_ms
	JMP  _glcd_clear

;OPTIMIZER ADDED SUBROUTINE, CALLED 2 TIMES, CODE SIZE REDUCTION:3 WORDS
SUBOPT_0x12:
	__SUBWRN 18,19,1
	LDI  R26,LOW(100)
	LDI  R27,0
	CALL _delay_ms
	JMP  _glcd_clear

;OPTIMIZER ADDED SUBROUTINE, CALLED 2 TIMES, CODE SIZE REDUCTION:10 WORDS
SUBOPT_0x13:
	ST   -Y,R17
	ST   -Y,R16
	ST   -Y,R19
	ST   -Y,R18
	LDI  R30,LOW(3)
	LDI  R31,HIGH(3)
	ST   -Y,R31
	ST   -Y,R30
	LDI  R30,LOW(0)
	ST   -Y,R30
	LDI  R26,LOW(1)
	CALL _circle
	__SUBWRN 16,17,1
	RET


	.CSEG
_delay_ms:
	adiw r26,0
	breq __delay_ms1
__delay_ms0:
	__DELAY_USW 0x7D0
	wdr
	sbiw r26,1
	brne __delay_ms0
__delay_ms1:
	ret

__ANEGW1:
	NEG  R31
	NEG  R30
	SBCI R31,0
	RET

__LSLB12:
	TST  R30
	MOV  R0,R30
	MOV  R30,R26
	BREQ __LSLB12R
__LSLB12L:
	LSL  R30
	DEC  R0
	BRNE __LSLB12L
__LSLB12R:
	RET

__LSRW3:
	LSR  R31
	ROR  R30
__LSRW2:
	LSR  R31
	ROR  R30
	LSR  R31
	ROR  R30
	RET

__LTB12U:
	CP   R26,R30
	LDI  R30,1
	BRLO __LTB12U1
	CLR  R30
__LTB12U1:
	RET

__MULW12U:
	MUL  R31,R26
	MOV  R31,R0
	MUL  R30,R27
	ADD  R31,R0
	MUL  R30,R26
	MOV  R30,R0
	ADD  R31,R1
	RET

__MULW12:
	RCALL __CHKSIGNW
	RCALL __MULW12U
	BRTC __MULW121
	RCALL __ANEGW1
__MULW121:
	RET

__CHKSIGNW:
	CLT
	SBRS R31,7
	RJMP __CHKSW1
	RCALL __ANEGW1
	SET
__CHKSW1:
	SBRS R27,7
	RJMP __CHKSW2
	COM  R26
	COM  R27
	ADIW R26,1
	BLD  R0,0
	INC  R0
	BST  R0,0
__CHKSW2:
	RET

__SAVELOCR4:
	ST   -Y,R19
__SAVELOCR3:
	ST   -Y,R18
__SAVELOCR2:
	ST   -Y,R17
	ST   -Y,R16
	RET

__LOADLOCR4:
	LDD  R19,Y+3
__LOADLOCR3:
	LDD  R18,Y+2
__LOADLOCR2:
	LDD  R17,Y+1
	LD   R16,Y
	RET

;END OF CODE MARKER
__END_OF_CODE:
